target datalayout = "e-m:e-p270:32:32-p271:32:32-p272:64:64-i64:64-i128:128-f80:128-n8:16:32:64-S128"
target triple = "x86_64-pc-linux-gnu"

%struct.autoload_const = type { %struct.ccan_list_node, i64, i64, i64, i64, i32, i64, i32 }
%struct.ccan_list_node = type { ptr, ptr }

; Function Attrs: nounwind sspstrong uwtable
define hidden i32 @rb_autoloading_value(i64 noundef %0, i64 noundef %1, ptr noundef %2, ptr noundef %3) #0 {
  %5 = alloca i32, align 4
  %6 = alloca i64, align 8
  %7 = alloca i64, align 8
  %8 = alloca ptr, align 8
  %9 = alloca ptr, align 8
  %10 = alloca ptr, align 8
  %11 = alloca i32, align 4
  store i64 %0, ptr %6, align 8, !tbaa !14
  store i64 %1, ptr %7, align 8, !tbaa !14
  store ptr %2, ptr %8, align 8, !tbaa !49
  store ptr %3, ptr %9, align 8, !tbaa !40
  call void @llvm.lifetime.start.p0(i64 8, ptr %10) #30
  %12 = load i64, ptr %6, align 8, !tbaa !14
  %13 = load i64, ptr %7, align 8, !tbaa !14
  %14 = call ptr @autoloading_const_entry(i64 noundef %12, i64 noundef %13)
  store ptr %14, ptr %10, align 8, !tbaa !142
  %15 = load ptr, ptr %10, align 8, !tbaa !142
  %16 = icmp ne ptr %15, null
  br i1 %16, label %18, label %17

17:                                               ; preds = %4
  store i32 0, ptr %5, align 4
  store i32 1, ptr %11, align 4
  br label %35

18:                                               ; preds = %4
  %19 = load ptr, ptr %8, align 8, !tbaa !49
  %20 = icmp ne ptr %19, null
  br i1 %20, label %21, label %26

21:                                               ; preds = %18
  %22 = load ptr, ptr %10, align 8, !tbaa !142
  %23 = getelementptr inbounds nuw %struct.autoload_const, ptr %22, i32 0, i32 4
  %24 = load i64, ptr %23, align 8, !tbaa !149
  %25 = load ptr, ptr %8, align 8, !tbaa !49
  store i64 %24, ptr %25, align 8, !tbaa !14
  br label %26

26:                                               ; preds = %21, %18
  %27 = load ptr, ptr %9, align 8, !tbaa !40
  %28 = icmp ne ptr %27, null
  br i1 %28, label %29, label %34

29:                                               ; preds = %26
  %30 = load ptr, ptr %10, align 8, !tbaa !142
  %31 = getelementptr inbounds nuw %struct.autoload_const, ptr %30, i32 0, i32 5
  %32 = load i32, ptr %31, align 8, !tbaa !150
  %33 = load ptr, ptr %9, align 8, !tbaa !40
  store i32 %32, ptr %33, align 4, !tbaa !51
  br label %34

34:                                               ; preds = %29, %26
  store i32 1, ptr %5, align 4
  store i32 1, ptr %11, align 4
  br label %35

35:                                               ; preds = %34, %17
  call void @llvm.lifetime.end.p0(i64 8, ptr %10) #30
  %36 = load i32, ptr %5, align 4
  ret i32 %36
}