; Function Attrs: nounwind sspstrong uwtable
define hidden range(i32 0, 2) i32 @rb_autoloading_value(i64 noundef %0, i64 noundef %1, ptr noundef writeonly captures(address_is_null) %2, ptr noundef writeonly captures(address_is_null) %3) local_unnamed_addr #0 {
  %5 = tail call fastcc ptr @autoloading_const_entry(i64 noundef %0, i64 noundef %1)
  %.not = icmp eq ptr %5, null
  br i1 %.not, label %14, label %6

6:                                                ; preds = %4
  %.not12 = icmp eq ptr %2, null
  br i1 %.not12, label %10, label %7

7:                                                ; preds = %6
  %8 = getelementptr inbounds nuw i8, ptr %5, i64 40
  %9 = load i64, ptr %8, align 8, !tbaa !157
  store i64 %9, ptr %2, align 8, !tbaa !14
  br label %10

10:                                               ; preds = %7, %6
  %.not13 = icmp eq ptr %3, null
  br i1 %.not13, label %14, label %11

11:                                               ; preds = %10
  %12 = getelementptr inbounds nuw i8, ptr %5, i64 48
  %13 = load i32, ptr %12, align 8, !tbaa !158
  store i32 %13, ptr %3, align 4, !tbaa !98
  br label %14

14:                                               ; preds = %10, %11, %4
  %.0 = phi i32 [ 0, %4 ], [ 1, %11 ], [ 1, %10 ]
  ret i32 %.0
}